Certificate:
    Data:
        Version: 3 (0x2)
        Serial Number:
            9f:83:cd:47:3e:ae:43:d4:41:4d:32:80:7a:c8:76:29
        Signature Algorithm: sha256WithRSAEncryption
        Issuer: CN=Wenger Binning
        Validity
            Not Before: Mar 14 01:53:56 2024 GMT
            Not After : Jun 12 01:53:56 2024 GMT
        Subject: CN=nginx-server
        Subject Public Key Info:
            Public Key Algorithm: rsaEncryption
                Public-Key: (2048 bit)
                Modulus:
                    00:d2:4f:90:23:ae:66:ba:6b:44:b1:6a:37:c0:bc:
                    0b:14:d5:5f:b4:68:be:23:c0:ca:e1:1e:c3:f0:74:
                    98:bd:6e:37:8c:c5:ad:81:af:a8:a5:5f:b6:f3:38:
                    cf:e0:d9:b6:a1:64:12:c1:1a:21:ba:5a:9b:ed:70:
                    74:da:36:2a:e5:dd:4f:20:cb:96:a1:d5:ff:78:5d:
                    87:f3:24:83:e9:10:ba:ce:9c:8e:88:e5:4e:2f:da:
                    64:82:26:7e:b5:3e:90:12:e6:7c:4c:bb:61:5d:e7:
                    82:36:0b:bb:2d:09:e9:db:4f:4b:cf:bb:17:69:18:
                    42:57:1f:a8:de:f6:fb:55:73:92:6a:ce:41:6b:e4:
                    13:e5:bf:13:f9:9c:19:4e:fd:10:ab:37:4b:e0:15:
                    a5:66:93:aa:16:f0:1c:d9:43:e9:f8:63:b3:ae:29:
                    d3:50:38:da:1c:cc:3a:bd:7f:27:28:de:df:8a:3f:
                    08:9f:ee:85:52:ca:c4:da:79:14:fc:fd:87:63:e5:
                    a8:50:89:78:c2:41:e3:53:0c:e3:d7:be:79:78:9f:
                    8d:4d:70:a1:e5:f3:af:0e:3f:0b:54:13:74:38:3c:
                    12:0c:15:3c:d7:3a:67:94:4c:ac:1b:46:70:11:3f:
                    08:d0:bf:eb:0d:e4:31:c8:29:06:51:5e:a6:68:f3:
                    33:7d
                Exponent: 65537 (0x10001)
        X509v3 extensions:
            X509v3 Basic Constraints: 
                CA:FALSE
            X509v3 Subject Key Identifier: 
                84:C9:AB:7A:E2:E0:EC:50:54:57:71:E0:5B:0B:D9:F3:10:66:AE:1C
            X509v3 Authority Key Identifier: 
                keyid:C4:A8:F1:97:AC:78:79:E6:A8:1C:32:CA:F2:38:73:13:F2:49:8C:D5
                DirName:/CN=Wenger Binning
                serial:64:DE:B2:49:87:B6:68:9C:8F:28:5D:40:25:B2:80:3F:F0:56:9C:04
            X509v3 Extended Key Usage: 
                TLS Web Server Authentication
            X509v3 Key Usage: 
                Digital Signature, Key Encipherment
            X509v3 Subject Alternative Name: 
                DNS:nginx-server
    Signature Algorithm: sha256WithRSAEncryption
    Signature Value:
        3b:eb:d9:e4:85:6e:5e:8e:a6:8e:ef:17:b8:ce:66:48:2f:55:
        f7:e2:a9:79:55:4c:05:bf:a3:20:f2:bf:19:52:77:ba:80:14:
        b7:2c:65:ca:d5:82:9c:b7:aa:2c:90:e6:2e:1c:d8:f6:20:7e:
        04:ae:c0:05:cc:1b:c8:95:7a:b6:c4:3d:17:62:b3:af:cf:13:
        14:c4:15:dd:95:3e:bb:e8:3d:96:66:b8:d0:1e:f4:a0:dc:8d:
        b1:79:30:32:3a:30:19:d7:34:3e:30:e0:74:e8:87:0e:7d:f0:
        f0:2b:d9:4a:33:5f:51:70:7f:34:d4:05:80:fa:3a:95:17:07:
        a0:7f:ae:eb:28:2c:d9:d3:d6:37:5e:ea:f2:9c:e3:4f:99:9b:
        68:0e:68:ba:ee:cb:f6:65:b5:e0:10:db:e4:50:37:c6:2d:c4:
        11:24:4b:eb:fb:db:2f:71:ce:41:1c:7d:ae:18:c6:73:0d:a5:
        f3:05:29:26:c1:d7:1a:07:7c:05:19:7b:90:c2:14:03:ca:4c:
        56:c2:92:25:79:1c:9b:46:ad:0d:c6:0f:f1:08:4a:d1:35:98:
        43:c7:72:d2:23:b5:fe:e8:09:5d:b4:40:ae:d8:f1:4d:b9:2b:
        2e:76:e4:85:e2:30:7d:93:d3:a4:aa:35:e4:59:08:a0:b8:fc:
        ff:cf:93:28
-----BEGIN CERTIFICATE-----
MIIDejCCAmKgAwIBAgIRAJ+DzUc+rkPUQU0ygHrIdikwDQYJKoZIhvcNAQELBQAw
GTEXMBUGA1UEAwwOV2VuZ2VyIEJpbm5pbmcwHhcNMjQwMzE0MDE1MzU2WhcNMjQw
NjEyMDE1MzU2WjAXMRUwEwYDVQQDDAxuZ2lueC1zZXJ2ZXIwggEiMA0GCSqGSIb3
DQEBAQUAA4IBDwAwggEKAoIBAQDST5Ajrma6a0SxajfAvAsU1V+0aL4jwMrhHsPw
dJi9bjeMxa2Br6ilX7bzOM/g2bahZBLBGiG6WpvtcHTaNirl3U8gy5ah1f94XYfz
JIPpELrOnI6I5U4v2mSCJn61PpAS5nxMu2Fd54I2C7stCenbT0vPuxdpGEJXH6je
9vtVc5JqzkFr5BPlvxP5nBlO/RCrN0vgFaVmk6oW8BzZQ+n4Y7OuKdNQONoczDq9
fyco3t+KPwif7oVSysTaeRT8/Ydj5ahQiXjCQeNTDOPXvnl4n41NcKHl868OPwtU
E3Q4PBIMFTzXOmeUTKwbRnARPwjQv+sN5DHIKQZRXqZo8zN9AgMBAAGjgb4wgbsw
CQYDVR0TBAIwADAdBgNVHQ4EFgQUhMmreuLg7FBUV3HgWwvZ8xBmrhwwVAYDVR0j
BE0wS4AUxKjxl6x4eeaoHDLK8jhzE/JJjNWhHaQbMBkxFzAVBgNVBAMMDldlbmdl
ciBCaW5uaW5nghRk3rJJh7ZonI8oXUAlsoA/8FacBDATBgNVHSUEDDAKBggrBgEF
BQcDATALBgNVHQ8EBAMCBaAwFwYDVR0RBBAwDoIMbmdpbngtc2VydmVyMA0GCSqG
SIb3DQEBCwUAA4IBAQA769nkhW5ejqaO7xe4zmZIL1X34ql5VUwFv6Mg8r8ZUne6
gBS3LGXK1YKct6oskOYuHNj2IH4ErsAFzBvIlXq2xD0XYrOvzxMUxBXdlT676D2W
ZrjQHvSg3I2xeTAyOjAZ1zQ+MOB06IcOffDwK9lKM19RcH801AWA+jqVFwegf67r
KCzZ09Y3XurynONPmZtoDmi67sv2ZbXgENvkUDfGLcQRJEvr+9svcc5BHH2uGMZz
DaXzBSkmwdcaB3wFGXuQwhQDykxWwpIleRybRq0Nxg/xCErRNZhDx3LSI7X+6Ald
tECu2PFNuSsuduSF4jB9k9OkqjXkWQiguPz/z5Mo
-----END CERTIFICATE-----
